target datalayout = "e-m:e-p270:32:32-p271:32:32-p272:64:64-i64:64-i128:128-f80:128-n8:16:32:64-S128"
target triple = "x86_64-unknown-linux-gnu"

%"class.cvc5::internal::NodeBuilder" = type <{ %"class.cvc5::internal::expr::NodeValue", [10 x ptr], ptr, ptr, i32, [4 x i8] }>
%"class.cvc5::internal::expr::NodeValue" = type { i64, i16, i32, [0 x ptr] }

@_ZTISt9bad_alloc = external constant ptr
@_ZTVSt9bad_alloc = external unnamed_addr constant { [5 x ptr] }, align 8
@_ZTVSt9exception = external unnamed_addr constant { [5 x ptr] }, align 8

; Function Attrs: mustprogress nounwind uwtable
define linkonce_odr hidden void @_ZNSt9exceptionC2Ev(ptr noundef nonnull align 8 dereferenceable(8) %this) unnamed_addr #5 comdat align 2 {
entry:
  %this.addr = alloca ptr, align 8
  store ptr %this, ptr %this.addr, align 8
  %this1 = load ptr, ptr %this.addr, align 8
  store ptr getelementptr inbounds ({ [5 x ptr] }, ptr @_ZTVSt9exception, i32 0, i32 0, i32 2), ptr %this1, align 8
  ret void
}

; Function Attrs: mustprogress nounwind uwtable
define linkonce_odr hidden void @_ZNSt9bad_allocC2Ev(ptr noundef nonnull align 8 dereferenceable(8) %this) unnamed_addr #5 comdat align 2 {
entry:
  %this.addr = alloca ptr, align 8
  store ptr %this, ptr %this.addr, align 8
  %this1 = load ptr, ptr %this.addr, align 8
  call void @_ZNSt9exceptionC2Ev(ptr noundef nonnull align 8 dereferenceable(8) %this1) #3
  store ptr getelementptr inbounds ({ [5 x ptr] }, ptr @_ZTVSt9bad_alloc, i32 0, i32 0, i32 2), ptr %this1, align 8
  ret void
}

; Function Attrs: mustprogress nounwind uwtable
define hidden noundef zeroext i1 @_ZNK4cvc58internal11NodeBuilder13nvIsAllocatedEv(ptr noundef nonnull align 8 dereferenceable(116) %this) #5 align 2 {
entry:
  %this.addr = alloca ptr, align 8
  store ptr %this, ptr %this.addr, align 8
  %this1 = load ptr, ptr %this.addr, align 8
  %d_nv = getelementptr inbounds %"class.cvc5::internal::NodeBuilder", ptr %this1, i32 0, i32 2
  %0 = load ptr, ptr %d_nv, align 8
  %d_inlineNv = getelementptr inbounds %"class.cvc5::internal::NodeBuilder", ptr %this1, i32 0, i32 0
  %cmp = icmp ne ptr %0, %d_inlineNv
  br i1 %cmp, label %land.rhs, label %land.end

land.rhs:                                         ; preds = %entry
  %d_nv2 = getelementptr inbounds %"class.cvc5::internal::NodeBuilder", ptr %this1, i32 0, i32 2
  %1 = load ptr, ptr %d_nv2, align 8
  %cmp3 = icmp ne ptr %1, null
  br label %land.end

land.end:                                         ; preds = %land.rhs, %entry
  %2 = phi i1 [ false, %entry ], [ %cmp3, %land.rhs ]
  ret i1 %2
}

; Function Attrs: mustprogress uwtable
define hidden void @_ZN4cvc58internal11NodeBuilder4cropEv(ptr noundef nonnull align 8 dereferenceable(116) %this) #4 align 2 {
entry:
  %this.addr = alloca ptr, align 8
  %newBlock = alloca ptr, align 8
  store ptr %this, ptr %this.addr, align 8
  %this1 = load ptr, ptr %this.addr, align 8
  %call = call noundef zeroext i1 @_ZNK4cvc58internal11NodeBuilder13nvIsAllocatedEv(ptr noundef nonnull align 8 dereferenceable(116) %this1)
  br i1 %call, label %land.lhs.true, label %if.end16

land.lhs.true:                                    ; preds = %entry
  %d_nvMaxChildren = getelementptr inbounds %"class.cvc5::internal::NodeBuilder", ptr %this1, i32 0, i32 4
  %0 = load i32, ptr %d_nvMaxChildren, align 8
  %d_nv = getelementptr inbounds %"class.cvc5::internal::NodeBuilder", ptr %this1, i32 0, i32 2
  %1 = load ptr, ptr %d_nv, align 8
  %d_nchildren = getelementptr inbounds %"class.cvc5::internal::expr::NodeValue", ptr %1, i32 0, i32 2
  %bf.load = load i32, ptr %d_nchildren, align 4
  %bf.clear = and i32 %bf.load, 67108863
  %cmp = icmp ugt i32 %0, %bf.clear
  br i1 %cmp, label %if.then, label %if.end16

if.then:                                          ; preds = %land.lhs.true
  %d_nv2 = getelementptr inbounds %"class.cvc5::internal::NodeBuilder", ptr %this1, i32 0, i32 2
  %2 = load ptr, ptr %d_nv2, align 8
  %d_nv3 = getelementptr inbounds %"class.cvc5::internal::NodeBuilder", ptr %this1, i32 0, i32 2
  %3 = load ptr, ptr %d_nv3, align 8
  %d_nchildren4 = getelementptr inbounds %"class.cvc5::internal::expr::NodeValue", ptr %3, i32 0, i32 2
  %bf.load5 = load i32, ptr %d_nchildren4, align 4
  %bf.clear6 = and i32 %bf.load5, 67108863
  %conv = zext i32 %bf.clear6 to i64
  %mul = mul i64 8, %conv
  %add = add i64 16, %mul
  %call7 = call ptr @realloc(ptr noundef %2, i64 noundef %add) #17
  store ptr %call7, ptr %newBlock, align 8
  %4 = load ptr, ptr %newBlock, align 8
  %cmp8 = icmp eq ptr %4, null
  br i1 %cmp8, label %if.then9, label %if.end

if.then9:                                         ; preds = %if.then
  %exception = call ptr @__cxa_allocate_exception(i64 8) #3
  call void @_ZNSt9bad_allocC2Ev(ptr noundef nonnull align 8 dereferenceable(8) %exception) #3
  call void @__cxa_throw(ptr %exception, ptr @_ZTISt9bad_alloc, ptr @_ZNSt9bad_allocD1Ev) #18
  unreachable

if.end:                                           ; preds = %if.then
  %5 = load ptr, ptr %newBlock, align 8
  %d_nv10 = getelementptr inbounds %"class.cvc5::internal::NodeBuilder", ptr %this1, i32 0, i32 2
  store ptr %5, ptr %d_nv10, align 8
  %d_nv11 = getelementptr inbounds %"class.cvc5::internal::NodeBuilder", ptr %this1, i32 0, i32 2
  %6 = load ptr, ptr %d_nv11, align 8
  %d_nchildren12 = getelementptr inbounds %"class.cvc5::internal::expr::NodeValue", ptr %6, i32 0, i32 2
  %bf.load13 = load i32, ptr %d_nchildren12, align 4
  %bf.clear14 = and i32 %bf.load13, 67108863
  %d_nvMaxChildren15 = getelementptr inbounds %"class.cvc5::internal::NodeBuilder", ptr %this1, i32 0, i32 4
  store i32 %bf.clear14, ptr %d_nvMaxChildren15, align 8
  br label %if.end16

if.end16:                                         ; preds = %if.end, %land.lhs.true, %entry
  ret void
}