; Function Attrs: mustprogress uwtable
define hidden void @_ZN4cvc58internal11NodeBuilder4cropEv(ptr noundef nonnull align 8 dereferenceable(116) %this) local_unnamed_addr #3 align 2 {
entry:
  %d_nv.i = getelementptr inbounds i8, ptr %this, i64 96
  %0 = load ptr, ptr %d_nv.i, align 8
  %cmp.not.i = icmp ne ptr %0, %this
  %cmp3.i = icmp ne ptr %0, null
  %spec.select.i = and i1 %cmp.not.i, %cmp3.i
  br i1 %spec.select.i, label %land.lhs.true, label %if.end16

land.lhs.true:                                    ; preds = %entry
  %d_nvMaxChildren = getelementptr inbounds i8, ptr %this, i64 112
  %1 = load i32, ptr %d_nvMaxChildren, align 8
  %d_nchildren = getelementptr inbounds i8, ptr %0, i64 12
  %bf.load = load i32, ptr %d_nchildren, align 4
  %bf.clear = and i32 %bf.load, 67108863
  %cmp = icmp ugt i32 %1, %bf.clear
  br i1 %cmp, label %if.then, label %if.end16

if.then:                                          ; preds = %land.lhs.true
  %2 = shl nuw nsw i32 %bf.clear, 3
  %narrow = add nuw nsw i32 %2, 16
  %add = zext nneg i32 %narrow to i64
  %call7 = tail call ptr @realloc(ptr noundef nonnull %0, i64 noundef %add) #25
  %cmp8 = icmp eq ptr %call7, null
  br i1 %cmp8, label %if.then9, label %if.end

if.then9:                                         ; preds = %if.then
  %exception = tail call ptr @__cxa_allocate_exception(i64 8) #23
  store ptr getelementptr inbounds ({ [5 x ptr] }, ptr @_ZTVSt9bad_alloc, i64 0, i32 0, i64 2), ptr %exception, align 8
  tail call void @__cxa_throw(ptr nonnull %exception, ptr nonnull @_ZTISt9bad_alloc, ptr nonnull @_ZNSt9bad_allocD1Ev) #26
  unreachable

if.end:                                           ; preds = %if.then
  store ptr %call7, ptr %d_nv.i, align 8
  %d_nchildren12 = getelementptr inbounds i8, ptr %call7, i64 12
  %bf.load13 = load i32, ptr %d_nchildren12, align 4
  %bf.clear14 = and i32 %bf.load13, 67108863
  store i32 %bf.clear14, ptr %d_nvMaxChildren, align 8
  br label %if.end16

if.end16:                                         ; preds = %if.end, %land.lhs.true, %entry
  ret void
}